

Disassembly of section .text:

004000b0 <main>:
  4000b0:	3c1c0fc0 	lui	gp,0xfc0
  4000b4:	279c7f40 	addiu	gp,gp,32576
  4000b8:	0399e021 	addu	gp,gp,t9
  4000bc:	27bdffd0 	addiu	sp,sp,-48
  4000c0:	afbe0028 	sw	s8,40(sp)
  4000c4:	03a0f021 	move	s8,sp
  4000c8:	24020001 	li	v0,1
  4000cc:	afc20014 	sw	v0,20(s8)
  4000d0:	afc00010 	sw	zero,16(s8)
  4000d4:	24020003 	li	v0,3
  4000d8:	afc2000c 	sw	v0,12(s8)
  4000dc:	2402002e 	li	v0,46
  4000e0:	a3c20009 	sb	v0,9(s8)
  4000e4:	2402002d 	li	v0,45
  4000e8:	a3c20008 	sb	v0,8(s8)
  4000ec:	8f828018 	lw	v0,-32744(gp)
  4000f0:	8c440130 	lw	a0,304(v0)
  4000f4:	24430130 	addiu	v1,v0,304
  4000f8:	8c630004 	lw	v1,4(v1)
  4000fc:	24420130 	addiu	v0,v0,304
  400100:	8c420008 	lw	v0,8(v0)
  400104:	afc40018 	sw	a0,24(s8)
  400108:	afc3001c 	sw	v1,28(s8)
  40010c:	afc20020 	sw	v0,32(s8)
  400110:	00001021 	move	v0,zero
  400114:	03c0e821 	move	sp,s8
  400118:	8fbe0028 	lw	s8,40(sp)
  40011c:	27bd0030 	addiu	sp,sp,48
  400120:	03e00008 	jr	ra
  400124:	00000000 	nop
	...